; Function Attrs: mustprogress uwtable
define void @_ZNK3gmx10OptionInfo15normalizeValuesERKSt6vectorINS_3AnyESaIS2_EE(ptr dead_on_unwind noalias writable sret(%"class.std::vector.19") align 8 %0, ptr noundef nonnull readonly align 8 captures(none) dereferenceable(16) %1, ptr noundef nonnull align 8 dereferenceable(24) %2) local_unnamed_addr #0 align 2 {
  %4 = getelementptr inbounds nuw i8, ptr %1, i64 8
  %5 = load ptr, ptr %4, align 8, !tbaa !66
  %6 = load ptr, ptr %5, align 8, !tbaa !3
  %7 = getelementptr inbounds nuw i8, ptr %6, i64 64
  %8 = load ptr, ptr %7, align 8
  tail call void %8(ptr dead_on_unwind writable sret(%"class.std::vector.19") align 8 %0, ptr noundef nonnull align 8 dereferenceable(98) %5, ptr noundef nonnull align 8 dereferenceable(24) %2)
  ret void
}